target datalayout = "e-m:e-p270:32:32-p271:32:32-p272:64:64-i64:64-i128:128-f80:128-n8:16:32:64-S128"
target triple = "x86_64-pc-linux-gnu"

@testctx = internal global ptr null, align 8
@.str.18 = private unnamed_addr constant [33 x i8] c"../openssl/test/evp_extra_test.c\00", align 1
@.str.112 = private unnamed_addr constant [2 x i8] c"0\00", align 1
@.str.142 = private unnamed_addr constant [4 x i8] c"DSA\00", align 1
@.str.144 = private unnamed_addr constant [5 x i8] c"pkey\00", align 1
@.str.207 = private unnamed_addr constant [2 x i8] c"p\00", align 1
@.str.316 = private unnamed_addr constant [5 x i8] c"priv\00", align 1
@.str.363 = private unnamed_addr constant [56 x i8] c"pctx = EVP_PKEY_CTX_new_from_name(testctx, \22DSA\22, NULL)\00", align 1
@.str.364 = private unnamed_addr constant [27 x i8] c"bld = OSSL_PARAM_BLD_new()\00", align 1
@.str.365 = private unnamed_addr constant [13 x i8] c"p = BN_new()\00", align 1
@.str.366 = private unnamed_addr constant [13 x i8] c"q = BN_new()\00", align 1
@.str.367 = private unnamed_addr constant [13 x i8] c"g = BN_new()\00", align 1
@.str.368 = private unnamed_addr constant [15 x i8] c"pub = BN_new()\00", align 1
@.str.369 = private unnamed_addr constant [16 x i8] c"priv = BN_new()\00", align 1
@.str.370 = private unnamed_addr constant [54 x i8] c"OSSL_PARAM_BLD_push_BN(bld, OSSL_PKEY_PARAM_FFC_P, p)\00", align 1
@.str.371 = private unnamed_addr constant [54 x i8] c"OSSL_PARAM_BLD_push_BN(bld, OSSL_PKEY_PARAM_FFC_Q, q)\00", align 1
@.str.372 = private unnamed_addr constant [2 x i8] c"q\00", align 1
@.str.373 = private unnamed_addr constant [54 x i8] c"OSSL_PARAM_BLD_push_BN(bld, OSSL_PKEY_PARAM_FFC_G, g)\00", align 1
@.str.374 = private unnamed_addr constant [2 x i8] c"g\00", align 1
@.str.375 = private unnamed_addr constant [58 x i8] c"OSSL_PARAM_BLD_push_BN(bld, OSSL_PKEY_PARAM_PUB_KEY, pub)\00", align 1
@.str.376 = private unnamed_addr constant [4 x i8] c"pub\00", align 1
@.str.377 = private unnamed_addr constant [60 x i8] c"OSSL_PARAM_BLD_push_BN(bld, OSSL_PKEY_PARAM_PRIV_KEY, priv)\00", align 1
@.str.378 = private unnamed_addr constant [38 x i8] c"params = OSSL_PARAM_BLD_to_param(bld)\00", align 1
@.str.379 = private unnamed_addr constant [29 x i8] c"EVP_PKEY_fromdata_init(pctx)\00", align 1
@.str.380 = private unnamed_addr constant [57 x i8] c"EVP_PKEY_fromdata(pctx, &pkey, EVP_PKEY_KEYPAIR, params)\00", align 1

; Function Attrs: nounwind uwtable
define internal i32 @test_DSA_get_set_params() #0 {
  %1 = alloca ptr, align 8
  %2 = alloca ptr, align 8
  %3 = alloca ptr, align 8
  %4 = alloca ptr, align 8
  %5 = alloca ptr, align 8
  %6 = alloca ptr, align 8
  %7 = alloca ptr, align 8
  %8 = alloca ptr, align 8
  %9 = alloca ptr, align 8
  %10 = alloca i32, align 4
  call void @llvm.lifetime.start.p0(i64 8, ptr %1) #8
  store ptr null, ptr %1, align 8, !tbaa !75
  call void @llvm.lifetime.start.p0(i64 8, ptr %2) #8
  store ptr null, ptr %2, align 8, !tbaa !77
  call void @llvm.lifetime.start.p0(i64 8, ptr %3) #8
  store ptr null, ptr %3, align 8, !tbaa !79
  call void @llvm.lifetime.start.p0(i64 8, ptr %4) #8
  store ptr null, ptr %4, align 8, !tbaa !79
  call void @llvm.lifetime.start.p0(i64 8, ptr %5) #8
  store ptr null, ptr %5, align 8, !tbaa !79
  call void @llvm.lifetime.start.p0(i64 8, ptr %6) #8
  store ptr null, ptr %6, align 8, !tbaa !79
  call void @llvm.lifetime.start.p0(i64 8, ptr %7) #8
  store ptr null, ptr %7, align 8, !tbaa !79
  call void @llvm.lifetime.start.p0(i64 8, ptr %8) #8
  store ptr null, ptr %8, align 8, !tbaa !29
  call void @llvm.lifetime.start.p0(i64 8, ptr %9) #8
  store ptr null, ptr %9, align 8, !tbaa !21
  call void @llvm.lifetime.start.p0(i64 4, ptr %10) #8
  store i32 0, ptr %10, align 4, !tbaa !9
  %11 = load ptr, ptr @testctx, align 8, !tbaa !11
  %12 = call ptr @EVP_PKEY_CTX_new_from_name(ptr noundef %11, ptr noundef @.str.142, ptr noundef null)
  store ptr %12, ptr %8, align 8, !tbaa !29
  %13 = call i32 @test_ptr(ptr noundef @.str.18, i32 noundef 3582, ptr noundef @.str.363, ptr noundef %12)
  %14 = icmp ne i32 %13, 0
  br i1 %14, label %15, label %39

15:                                               ; preds = %0
  %16 = call ptr @OSSL_PARAM_BLD_new()
  store ptr %16, ptr %1, align 8, !tbaa !75
  %17 = call i32 @test_ptr(ptr noundef @.str.18, i32 noundef 3583, ptr noundef @.str.364, ptr noundef %16)
  %18 = icmp ne i32 %17, 0
  br i1 %18, label %19, label %39

19:                                               ; preds = %15
  %20 = call ptr @BN_new()
  store ptr %20, ptr %3, align 8, !tbaa !79
  %21 = call i32 @test_ptr(ptr noundef @.str.18, i32 noundef 3584, ptr noundef @.str.365, ptr noundef %20)
  %22 = icmp ne i32 %21, 0
  br i1 %22, label %23, label %39

23:                                               ; preds = %19
  %24 = call ptr @BN_new()
  store ptr %24, ptr %4, align 8, !tbaa !79
  %25 = call i32 @test_ptr(ptr noundef @.str.18, i32 noundef 3585, ptr noundef @.str.366, ptr noundef %24)
  %26 = icmp ne i32 %25, 0
  br i1 %26, label %27, label %39

27:                                               ; preds = %23
  %28 = call ptr @BN_new()
  store ptr %28, ptr %5, align 8, !tbaa !79
  %29 = call i32 @test_ptr(ptr noundef @.str.18, i32 noundef 3586, ptr noundef @.str.367, ptr noundef %28)
  %30 = icmp ne i32 %29, 0
  br i1 %30, label %31, label %39

31:                                               ; preds = %27
  %32 = call ptr @BN_new()
  store ptr %32, ptr %6, align 8, !tbaa !79
  %33 = call i32 @test_ptr(ptr noundef @.str.18, i32 noundef 3587, ptr noundef @.str.368, ptr noundef %32)
  %34 = icmp ne i32 %33, 0
  br i1 %34, label %35, label %39

35:                                               ; preds = %31
  %36 = call ptr @BN_new()
  store ptr %36, ptr %7, align 8, !tbaa !79
  %37 = call i32 @test_ptr(ptr noundef @.str.18, i32 noundef 3588, ptr noundef @.str.369, ptr noundef %36)
  %38 = icmp ne i32 %37, 0
  br i1 %38, label %40, label %39

39:                                               ; preds = %35, %31, %27, %23, %19, %15, %0
  br label %107

40:                                               ; preds = %35
  %41 = load ptr, ptr %1, align 8, !tbaa !75
  %42 = load ptr, ptr %3, align 8, !tbaa !79
  %43 = call i32 @OSSL_PARAM_BLD_push_BN(ptr noundef %41, ptr noundef @.str.207, ptr noundef %42)
  %44 = icmp ne i32 %43, 0
  %45 = zext i1 %44 to i32
  %46 = call i32 @test_true(ptr noundef @.str.18, i32 noundef 3590, ptr noundef @.str.370, i32 noundef %45)
  %47 = icmp ne i32 %46, 0
  br i1 %47, label %48, label %80

48:                                               ; preds = %40
  %49 = load ptr, ptr %1, align 8, !tbaa !75
  %50 = load ptr, ptr %4, align 8, !tbaa !79
  %51 = call i32 @OSSL_PARAM_BLD_push_BN(ptr noundef %49, ptr noundef @.str.372, ptr noundef %50)
  %52 = icmp ne i32 %51, 0
  %53 = zext i1 %52 to i32
  %54 = call i32 @test_true(ptr noundef @.str.18, i32 noundef 3591, ptr noundef @.str.371, i32 noundef %53)
  %55 = icmp ne i32 %54, 0
  br i1 %55, label %56, label %80

56:                                               ; preds = %48
  %57 = load ptr, ptr %1, align 8, !tbaa !75
  %58 = load ptr, ptr %5, align 8, !tbaa !79
  %59 = call i32 @OSSL_PARAM_BLD_push_BN(ptr noundef %57, ptr noundef @.str.374, ptr noundef %58)
  %60 = icmp ne i32 %59, 0
  %61 = zext i1 %60 to i32
  %62 = call i32 @test_true(ptr noundef @.str.18, i32 noundef 3592, ptr noundef @.str.373, i32 noundef %61)
  %63 = icmp ne i32 %62, 0
  br i1 %63, label %64, label %80

64:                                               ; preds = %56
  %65 = load ptr, ptr %1, align 8, !tbaa !75
  %66 = load ptr, ptr %6, align 8, !tbaa !79
  %67 = call i32 @OSSL_PARAM_BLD_push_BN(ptr noundef %65, ptr noundef @.str.376, ptr noundef %66)
  %68 = icmp ne i32 %67, 0
  %69 = zext i1 %68 to i32
  %70 = call i32 @test_true(ptr noundef @.str.18, i32 noundef 3594, ptr noundef @.str.375, i32 noundef %69)
  %71 = icmp ne i32 %70, 0
  br i1 %71, label %72, label %80

72:                                               ; preds = %64
  %73 = load ptr, ptr %1, align 8, !tbaa !75
  %74 = load ptr, ptr %7, align 8, !tbaa !79
  %75 = call i32 @OSSL_PARAM_BLD_push_BN(ptr noundef %73, ptr noundef @.str.316, ptr noundef %74)
  %76 = icmp ne i32 %75, 0
  %77 = zext i1 %76 to i32
  %78 = call i32 @test_true(ptr noundef @.str.18, i32 noundef 3596, ptr noundef @.str.377, i32 noundef %77)
  %79 = icmp ne i32 %78, 0
  br i1 %79, label %81, label %80

80:                                               ; preds = %72, %64, %56, %48, %40
  br label %107

81:                                               ; preds = %72
  %82 = load ptr, ptr %1, align 8, !tbaa !75
  %83 = call ptr @OSSL_PARAM_BLD_to_param(ptr noundef %82)
  store ptr %83, ptr %2, align 8, !tbaa !77
  %84 = call i32 @test_ptr(ptr noundef @.str.18, i32 noundef 3598, ptr noundef @.str.378, ptr noundef %83)
  %85 = icmp ne i32 %84, 0
  br i1 %85, label %87, label %86

86:                                               ; preds = %81
  br label %107

87:                                               ; preds = %81
  %88 = load ptr, ptr %8, align 8, !tbaa !29
  %89 = call i32 @EVP_PKEY_fromdata_init(ptr noundef %88)
  %90 = call i32 @test_int_gt(ptr noundef @.str.18, i32 noundef 3601, ptr noundef @.str.379, ptr noundef @.str.112, i32 noundef %89, i32 noundef 0)
  %91 = icmp ne i32 %90, 0
  br i1 %91, label %92, label %98

92:                                               ; preds = %87
  %93 = load ptr, ptr %8, align 8, !tbaa !29
  %94 = load ptr, ptr %2, align 8, !tbaa !77
  %95 = call i32 @EVP_PKEY_fromdata(ptr noundef %93, ptr noundef %9, i32 noundef 135, ptr noundef %94)
  %96 = call i32 @test_int_gt(ptr noundef @.str.18, i32 noundef 3603, ptr noundef @.str.380, ptr noundef @.str.112, i32 noundef %95, i32 noundef 0)
  %97 = icmp ne i32 %96, 0
  br i1 %97, label %99, label %98

98:                                               ; preds = %92, %87
  br label %107

99:                                               ; preds = %92
  %100 = load ptr, ptr %9, align 8, !tbaa !21
  %101 = call i32 @test_ptr(ptr noundef @.str.18, i32 noundef 3606, ptr noundef @.str.144, ptr noundef %100)
  %102 = icmp ne i32 %101, 0
  br i1 %102, label %104, label %103

103:                                              ; preds = %99
  br label %107

104:                                              ; preds = %99
  %105 = load ptr, ptr %9, align 8, !tbaa !21
  %106 = call i32 @test_EVP_PKEY_CTX_get_set_params(ptr noundef %105)
  store i32 %106, ptr %10, align 4, !tbaa !9
  br label %107

107:                                              ; preds = %104, %103, %98, %86, %80, %39
  %108 = load ptr, ptr %9, align 8, !tbaa !21
  call void @EVP_PKEY_free(ptr noundef %108)
  %109 = load ptr, ptr %8, align 8, !tbaa !29
  call void @EVP_PKEY_CTX_free(ptr noundef %109)
  %110 = load ptr, ptr %2, align 8, !tbaa !77
  call void @OSSL_PARAM_free(ptr noundef %110)
  %111 = load ptr, ptr %1, align 8, !tbaa !75
  call void @OSSL_PARAM_BLD_free(ptr noundef %111)
  %112 = load ptr, ptr %3, align 8, !tbaa !79
  call void @BN_free(ptr noundef %112)
  %113 = load ptr, ptr %4, align 8, !tbaa !79
  call void @BN_free(ptr noundef %113)
  %114 = load ptr, ptr %5, align 8, !tbaa !79
  call void @BN_free(ptr noundef %114)
  %115 = load ptr, ptr %6, align 8, !tbaa !79
  call void @BN_free(ptr noundef %115)
  %116 = load ptr, ptr %7, align 8, !tbaa !79
  call void @BN_free(ptr noundef %116)
  %117 = load i32, ptr %10, align 4, !tbaa !9
  call void @llvm.lifetime.end.p0(i64 4, ptr %10) #8
  call void @llvm.lifetime.end.p0(i64 8, ptr %9) #8
  call void @llvm.lifetime.end.p0(i64 8, ptr %8) #8
  call void @llvm.lifetime.end.p0(i64 8, ptr %7) #8
  call void @llvm.lifetime.end.p0(i64 8, ptr %6) #8
  call void @llvm.lifetime.end.p0(i64 8, ptr %5) #8
  call void @llvm.lifetime.end.p0(i64 8, ptr %4) #8
  call void @llvm.lifetime.end.p0(i64 8, ptr %3) #8
  call void @llvm.lifetime.end.p0(i64 8, ptr %2) #8
  call void @llvm.lifetime.end.p0(i64 8, ptr %1) #8
  ret i32 %117
}