; Function Attrs: nounwind uwtable
define internal range(i32 0, 2) i32 @test_DSA_get_set_params() #1 {
  %1 = alloca ptr, align 8
  call void @llvm.lifetime.start.p0(i64 8, ptr nonnull %1) #9
  store ptr null, ptr %1, align 8, !tbaa !21
  %2 = load ptr, ptr @testctx, align 8, !tbaa !6
  %3 = tail call ptr @EVP_PKEY_CTX_new_from_name(ptr noundef %2, ptr noundef nonnull @.str.142, ptr noundef null) #9
  %4 = tail call i32 @test_ptr(ptr noundef nonnull @.str.18, i32 noundef 3582, ptr noundef nonnull @.str.363, ptr noundef %3) #9
  %.not = icmp eq i32 %4, 0
  br i1 %.not, label %61, label %5

5:                                                ; preds = %0
  %6 = tail call ptr @OSSL_PARAM_BLD_new() #9
  %7 = tail call i32 @test_ptr(ptr noundef nonnull @.str.18, i32 noundef 3583, ptr noundef nonnull @.str.364, ptr noundef %6) #9
  %.not29 = icmp eq i32 %7, 0
  br i1 %.not29, label %61, label %8

8:                                                ; preds = %5
  %9 = tail call ptr @BN_new() #9
  %10 = tail call i32 @test_ptr(ptr noundef nonnull @.str.18, i32 noundef 3584, ptr noundef nonnull @.str.365, ptr noundef %9) #9
  %.not30 = icmp eq i32 %10, 0
  br i1 %.not30, label %61, label %11

11:                                               ; preds = %8
  %12 = tail call ptr @BN_new() #9
  %13 = tail call i32 @test_ptr(ptr noundef nonnull @.str.18, i32 noundef 3585, ptr noundef nonnull @.str.366, ptr noundef %12) #9
  %.not31 = icmp eq i32 %13, 0
  br i1 %.not31, label %61, label %14

14:                                               ; preds = %11
  %15 = tail call ptr @BN_new() #9
  %16 = tail call i32 @test_ptr(ptr noundef nonnull @.str.18, i32 noundef 3586, ptr noundef nonnull @.str.367, ptr noundef %15) #9
  %.not32 = icmp eq i32 %16, 0
  br i1 %.not32, label %61, label %17

17:                                               ; preds = %14
  %18 = tail call ptr @BN_new() #9
  %19 = tail call i32 @test_ptr(ptr noundef nonnull @.str.18, i32 noundef 3587, ptr noundef nonnull @.str.368, ptr noundef %18) #9
  %.not33 = icmp eq i32 %19, 0
  br i1 %.not33, label %61, label %20

20:                                               ; preds = %17
  %21 = tail call ptr @BN_new() #9
  %22 = tail call i32 @test_ptr(ptr noundef nonnull @.str.18, i32 noundef 3588, ptr noundef nonnull @.str.369, ptr noundef %21) #9
  %.not34 = icmp eq i32 %22, 0
  br i1 %.not34, label %61, label %23

23:                                               ; preds = %20
  %24 = tail call i32 @OSSL_PARAM_BLD_push_BN(ptr noundef %6, ptr noundef nonnull @.str.207, ptr noundef %9) #9
  %25 = icmp ne i32 %24, 0
  %26 = zext i1 %25 to i32
  %27 = tail call i32 @test_true(ptr noundef nonnull @.str.18, i32 noundef 3590, ptr noundef nonnull @.str.370, i32 noundef %26) #9
  %.not35 = icmp eq i32 %27, 0
  br i1 %.not35, label %61, label %28

28:                                               ; preds = %23
  %29 = tail call i32 @OSSL_PARAM_BLD_push_BN(ptr noundef %6, ptr noundef nonnull @.str.372, ptr noundef %12) #9
  %30 = icmp ne i32 %29, 0
  %31 = zext i1 %30 to i32
  %32 = tail call i32 @test_true(ptr noundef nonnull @.str.18, i32 noundef 3591, ptr noundef nonnull @.str.371, i32 noundef %31) #9
  %.not36 = icmp eq i32 %32, 0
  br i1 %.not36, label %61, label %33

33:                                               ; preds = %28
  %34 = tail call i32 @OSSL_PARAM_BLD_push_BN(ptr noundef %6, ptr noundef nonnull @.str.374, ptr noundef %15) #9
  %35 = icmp ne i32 %34, 0
  %36 = zext i1 %35 to i32
  %37 = tail call i32 @test_true(ptr noundef nonnull @.str.18, i32 noundef 3592, ptr noundef nonnull @.str.373, i32 noundef %36) #9
  %.not37 = icmp eq i32 %37, 0
  br i1 %.not37, label %61, label %38

38:                                               ; preds = %33
  %39 = tail call i32 @OSSL_PARAM_BLD_push_BN(ptr noundef %6, ptr noundef nonnull @.str.376, ptr noundef %18) #9
  %40 = icmp ne i32 %39, 0
  %41 = zext i1 %40 to i32
  %42 = tail call i32 @test_true(ptr noundef nonnull @.str.18, i32 noundef 3594, ptr noundef nonnull @.str.375, i32 noundef %41) #9
  %.not38 = icmp eq i32 %42, 0
  br i1 %.not38, label %61, label %43

43:                                               ; preds = %38
  %44 = tail call i32 @OSSL_PARAM_BLD_push_BN(ptr noundef %6, ptr noundef nonnull @.str.316, ptr noundef %21) #9
  %45 = icmp ne i32 %44, 0
  %46 = zext i1 %45 to i32
  %47 = tail call i32 @test_true(ptr noundef nonnull @.str.18, i32 noundef 3596, ptr noundef nonnull @.str.377, i32 noundef %46) #9
  %.not39 = icmp eq i32 %47, 0
  br i1 %.not39, label %61, label %48

48:                                               ; preds = %43
  %49 = tail call ptr @OSSL_PARAM_BLD_to_param(ptr noundef %6) #9
  %50 = tail call i32 @test_ptr(ptr noundef nonnull @.str.18, i32 noundef 3598, ptr noundef nonnull @.str.378, ptr noundef %49) #9
  %.not40 = icmp eq i32 %50, 0
  br i1 %.not40, label %61, label %51

51:                                               ; preds = %48
  %52 = tail call i32 @EVP_PKEY_fromdata_init(ptr noundef %3) #9
  %53 = tail call i32 @test_int_gt(ptr noundef nonnull @.str.18, i32 noundef 3601, ptr noundef nonnull @.str.379, ptr noundef nonnull @.str.112, i32 noundef %52, i32 noundef 0) #9
  %.not41 = icmp eq i32 %53, 0
  br i1 %.not41, label %61, label %54

54:                                               ; preds = %51
  %55 = call i32 @EVP_PKEY_fromdata(ptr noundef %3, ptr noundef nonnull %1, i32 noundef 135, ptr noundef %49) #9
  %56 = call i32 @test_int_gt(ptr noundef nonnull @.str.18, i32 noundef 3603, ptr noundef nonnull @.str.380, ptr noundef nonnull @.str.112, i32 noundef %55, i32 noundef 0) #9
  %.not42 = icmp eq i32 %56, 0
  %.pre45 = load ptr, ptr %1, align 8, !tbaa !21
  br i1 %.not42, label %61, label %57

57:                                               ; preds = %54
  %58 = call i32 @test_ptr(ptr noundef nonnull @.str.18, i32 noundef 3606, ptr noundef nonnull @.str.144, ptr noundef %.pre45) #9
  %.not43 = icmp eq i32 %58, 0
  %.pre44 = load ptr, ptr %1, align 8, !tbaa !21
  br i1 %.not43, label %61, label %59

59:                                               ; preds = %57
  %60 = call fastcc i32 @test_EVP_PKEY_CTX_get_set_params(ptr noundef %.pre44)
  %.pre = load ptr, ptr %1, align 8, !tbaa !21
  br label %61

61:                                               ; preds = %57, %51, %54, %48, %23, %28, %33, %38, %43, %0, %5, %8, %11, %14, %17, %20, %59
  %62 = phi ptr [ %.pre, %59 ], [ %.pre44, %57 ], [ %.pre45, %54 ], [ null, %51 ], [ null, %48 ], [ null, %43 ], [ null, %38 ], [ null, %33 ], [ null, %28 ], [ null, %23 ], [ null, %20 ], [ null, %17 ], [ null, %14 ], [ null, %11 ], [ null, %8 ], [ null, %5 ], [ null, %0 ]
  %.028 = phi ptr [ %6, %59 ], [ %6, %57 ], [ %6, %54 ], [ %6, %51 ], [ %6, %48 ], [ %6, %43 ], [ %6, %38 ], [ %6, %33 ], [ %6, %28 ], [ %6, %23 ], [ %6, %20 ], [ %6, %17 ], [ %6, %14 ], [ %6, %11 ], [ %6, %8 ], [ %6, %5 ], [ null, %0 ]
  %.027 = phi ptr [ %49, %59 ], [ %49, %57 ], [ %49, %54 ], [ %49, %51 ], [ %49, %48 ], [ null, %43 ], [ null, %38 ], [ null, %33 ], [ null, %28 ], [ null, %23 ], [ null, %20 ], [ null, %17 ], [ null, %14 ], [ null, %11 ], [ null, %8 ], [ null, %5 ], [ null, %0 ]
  %.026 = phi ptr [ %9, %59 ], [ %9, %57 ], [ %9, %54 ], [ %9, %51 ], [ %9, %48 ], [ %9, %43 ], [ %9, %38 ], [ %9, %33 ], [ %9, %28 ], [ %9, %23 ], [ %9, %20 ], [ %9, %17 ], [ %9, %14 ], [ %9, %11 ], [ %9, %8 ], [ null, %5 ], [ null, %0 ]
  %.025 = phi ptr [ %12, %59 ], [ %12, %57 ], [ %12, %54 ], [ %12, %51 ], [ %12, %48 ], [ %12, %43 ], [ %12, %38 ], [ %12, %33 ], [ %12, %28 ], [ %12, %23 ], [ %12, %20 ], [ %12, %17 ], [ %12, %14 ], [ %12, %11 ], [ null, %8 ], [ null, %5 ], [ null, %0 ]
  %.024 = phi ptr [ %15, %59 ], [ %15, %57 ], [ %15, %54 ], [ %15, %51 ], [ %15, %48 ], [ %15, %43 ], [ %15, %38 ], [ %15, %33 ], [ %15, %28 ], [ %15, %23 ], [ %15, %20 ], [ %15, %17 ], [ %15, %14 ], [ null, %11 ], [ null, %8 ], [ null, %5 ], [ null, %0 ]
  %.023 = phi ptr [ %18, %59 ], [ %18, %57 ], [ %18, %54 ], [ %18, %51 ], [ %18, %48 ], [ %18, %43 ], [ %18, %38 ], [ %18, %33 ], [ %18, %28 ], [ %18, %23 ], [ %18, %20 ], [ %18, %17 ], [ null, %14 ], [ null, %11 ], [ null, %8 ], [ null, %5 ], [ null, %0 ]
  %.022 = phi ptr [ %21, %59 ], [ %21, %57 ], [ %21, %54 ], [ %21, %51 ], [ %21, %48 ], [ %21, %43 ], [ %21, %38 ], [ %21, %33 ], [ %21, %28 ], [ %21, %23 ], [ %21, %20 ], [ null, %17 ], [ null, %14 ], [ null, %11 ], [ null, %8 ], [ null, %5 ], [ null, %0 ]
  %.0 = phi i32 [ %60, %59 ], [ 0, %57 ], [ 0, %54 ], [ 0, %51 ], [ 0, %48 ], [ 0, %43 ], [ 0, %38 ], [ 0, %33 ], [ 0, %28 ], [ 0, %23 ], [ 0, %20 ], [ 0, %17 ], [ 0, %14 ], [ 0, %11 ], [ 0, %8 ], [ 0, %5 ], [ 0, %0 ]
  call void @EVP_PKEY_free(ptr noundef %62) #9
  call void @EVP_PKEY_CTX_free(ptr noundef %3) #9
  call void @OSSL_PARAM_free(ptr noundef %.027) #9
  call void @OSSL_PARAM_BLD_free(ptr noundef %.028) #9
  call void @BN_free(ptr noundef %.026) #9
  call void @BN_free(ptr noundef %.025) #9
  call void @BN_free(ptr noundef %.024) #9
  call void @BN_free(ptr noundef %.023) #9
  call void @BN_free(ptr noundef %.022) #9
  call void @llvm.lifetime.end.p0(i64 8, ptr nonnull %1) #9
  ret i32 %.0
}